; Function Attrs: mustprogress uwtable
define void @_ZN7rocksdb19RemoveTrailingSlashERKNSt7__cxx1112basic_stringIcSt11char_traitsIcESaIcEEE(ptr noalias nonnull sret(%"class.std::__cxx11::basic_string") align 8 %agg.result, ptr noundef nonnull align 8 dereferenceable(32) %path) local_unnamed_addr #0 {
entry:
  tail call void @_ZNSt7__cxx1112basic_stringIcSt11char_traitsIcESaIcEEC1ERKS4_(ptr noundef nonnull align 8 dereferenceable(32) %agg.result, ptr noundef nonnull align 8 dereferenceable(32) %path)
  %call = tail call noundef i64 @_ZNKSt7__cxx1112basic_stringIcSt11char_traitsIcESaIcEE4sizeEv(ptr noundef nonnull align 8 dereferenceable(32) %agg.result) #25
  %cmp = icmp ugt i64 %call, 1
  br i1 %cmp, label %land.lhs.true, label %nrvo.skipdtor

land.lhs.true:                                    ; preds = %entry
  %call1 = tail call noundef nonnull align 1 dereferenceable(1) ptr @_ZNSt7__cxx1112basic_stringIcSt11char_traitsIcESaIcEE4backEv(ptr noundef nonnull align 8 dereferenceable(32) %agg.result) #25
  %0 = load i8, ptr %call1, align 1
  %cmp2 = icmp eq i8 %0, 47
  br i1 %cmp2, label %if.then, label %nrvo.skipdtor

if.then:                                          ; preds = %land.lhs.true
  tail call void @_ZNSt7__cxx1112basic_stringIcSt11char_traitsIcESaIcEE8pop_backEv(ptr noundef nonnull align 8 dereferenceable(32) %agg.result) #25
  br label %nrvo.skipdtor

nrvo.skipdtor:                                    ; preds = %entry, %land.lhs.true, %if.then
  ret void
}